target datalayout = "e-m:e-p270:32:32-p271:32:32-p272:64:64-i64:64-i128:128-f80:128-n8:16:32:64-S128"
target triple = "x86_64-pc-linux-gnu"

%struct.option = type { i32, i32, ptr, ptr, ptr, ptr, i32, ptr, i64, ptr, i64, ptr }

@.str.1 = private unnamed_addr constant [5 x i8] c"list\00", align 1
@the_repository = external global ptr, align 8
@reflog_list_usage = internal constant [2 x ptr] [ptr @.str.7, ptr null], align 16
@.str.6 = private unnamed_addr constant [35 x i8] c"%s does not accept arguments: '%s'\00", align 1
@.str.8 = private unnamed_addr constant [1 x i8] zeroinitializer, align 1
@git_gettext_enabled = external global i32, align 4

; Function Attrs: inlinehint nounwind uwtable
define internal i32 @const_error() #4 {
  ret i32 -1
}

; Function Attrs: inlinehint nounwind uwtable
define internal ptr @_(ptr noundef %0) #4 {
  %2 = alloca ptr, align 8
  %3 = alloca ptr, align 8
  store ptr %0, ptr %3, align 8, !tbaa !11
  %4 = load ptr, ptr %3, align 8, !tbaa !11
  %5 = load i8, ptr %4, align 1, !tbaa !68
  %6 = icmp ne i8 %5, 0
  br i1 %6, label %8, label %7

7:                                                ; preds = %1
  store ptr @.str.8, ptr %2, align 8
  br label %16

8:                                                ; preds = %1
  %9 = load i32, ptr @git_gettext_enabled, align 4, !tbaa !4
  %10 = icmp ne i32 %9, 0
  br i1 %10, label %13, label %11

11:                                               ; preds = %8
  %12 = load ptr, ptr %3, align 8, !tbaa !11
  store ptr %12, ptr %2, align 8
  br label %16

13:                                               ; preds = %8
  %14 = load ptr, ptr %3, align 8, !tbaa !11
  %15 = call ptr @dcgettext(ptr noundef null, ptr noundef %14, i32 noundef 5) #9
  store ptr %15, ptr %2, align 8
  br label %16

16:                                               ; preds = %13, %11, %7
  %17 = load ptr, ptr %2, align 8
  ret ptr %17
}

; Function Attrs: nounwind uwtable
define internal i32 @cmd_reflog_list(i32 noundef %0, ptr noundef %1, ptr noundef %2, ptr noundef %3) #0 {
  %5 = alloca i32, align 4
  %6 = alloca i32, align 4
  %7 = alloca ptr, align 8
  %8 = alloca ptr, align 8
  %9 = alloca ptr, align 8
  %10 = alloca [1 x %struct.option], align 16
  %11 = alloca ptr, align 8
  %12 = alloca i32, align 4
  store i32 %0, ptr %6, align 4, !tbaa !4
  store ptr %1, ptr %7, align 8, !tbaa !8
  store ptr %2, ptr %8, align 8, !tbaa !11
  store ptr %3, ptr %9, align 8, !tbaa !13
  call void @llvm.lifetime.start.p0(i64 88, ptr %10) #9
  call void @llvm.memset.p0.i64(ptr align 16 %10, i8 0, i64 88, i1 false)
  call void @llvm.lifetime.start.p0(i64 8, ptr %11) #9
  %13 = load i32, ptr %6, align 4, !tbaa !4
  %14 = load ptr, ptr %7, align 8, !tbaa !8
  %15 = load ptr, ptr %8, align 8, !tbaa !11
  %16 = getelementptr inbounds [1 x %struct.option], ptr %10, i64 0, i64 0
  %17 = call i32 @parse_options(i32 noundef %13, ptr noundef %14, ptr noundef %15, ptr noundef %16, ptr noundef @reflog_list_usage, i32 noundef 0)
  store i32 %17, ptr %6, align 4, !tbaa !4
  %18 = load i32, ptr %6, align 4, !tbaa !4
  %19 = icmp ne i32 %18, 0
  br i1 %19, label %20, label %27

20:                                               ; preds = %4
  %21 = call ptr @_(ptr noundef @.str.6)
  %22 = load ptr, ptr %7, align 8, !tbaa !8
  %23 = getelementptr inbounds ptr, ptr %22, i64 0
  %24 = load ptr, ptr %23, align 8, !tbaa !11
  %25 = call i32 (ptr, ...) @error(ptr noundef %21, ptr noundef @.str.1, ptr noundef %24)
  %26 = call i32 @const_error()
  store i32 %26, ptr %5, align 4
  store i32 1, ptr %12, align 4
  br label %32

27:                                               ; preds = %4
  %28 = load ptr, ptr @the_repository, align 8, !tbaa !13
  %29 = call ptr @get_main_ref_store(ptr noundef %28)
  store ptr %29, ptr %11, align 8, !tbaa !30
  %30 = load ptr, ptr %11, align 8, !tbaa !30
  %31 = call i32 @refs_for_each_reflog(ptr noundef %30, ptr noundef @show_reflog, ptr noundef null)
  store i32 %31, ptr %5, align 4
  store i32 1, ptr %12, align 4
  br label %32

32:                                               ; preds = %27, %20
  call void @llvm.lifetime.end.p0(i64 8, ptr %11) #9
  call void @llvm.lifetime.end.p0(i64 88, ptr %10) #9
  %33 = load i32, ptr %5, align 4
  ret i32 %33
}