; Function Attrs: nounwind uwtable
define internal i32 @cmd_reflog_list(i32 noundef %0, ptr noundef %1, ptr noundef %2, ptr readnone captures(none) %3) #0 {
  %5 = alloca [1 x %struct.option], align 16
  call void @llvm.lifetime.start.p0(i64 88, ptr nonnull %5) #13
  call void @llvm.memset.p0.i64(ptr noundef nonnull align 16 dereferenceable(88) %5, i8 0, i64 88, i1 false)
  %6 = call i32 @parse_options(i32 noundef %0, ptr noundef %1, ptr noundef %2, ptr noundef nonnull %5, ptr noundef nonnull @reflog_list_usage, i32 noundef 0) #13
  %.not = icmp eq i32 %6, 0
  br i1 %.not, label %13, label %7

7:                                                ; preds = %4
  %8 = load i32, ptr @git_gettext_enabled, align 4, !tbaa !19
  %.not4.i = icmp eq i32 %8, 0
  br i1 %.not4.i, label %_.exit, label %9

9:                                                ; preds = %7
  %10 = call ptr @dcgettext(ptr noundef null, ptr noundef nonnull @.str.6, i32 noundef 5) #13
  br label %_.exit

_.exit:                                           ; preds = %7, %9
  %.0.i = phi ptr [ %10, %9 ], [ @.str.6, %7 ]
  %11 = load ptr, ptr %1, align 8, !tbaa !20
  %12 = call i32 (ptr, ...) @error(ptr noundef %.0.i, ptr noundef nonnull @.str.1, ptr noundef %11) #13
  br label %17

13:                                               ; preds = %4
  %14 = load ptr, ptr @the_repository, align 8, !tbaa !17
  %15 = call ptr @get_main_ref_store(ptr noundef %14) #13
  %16 = call i32 @refs_for_each_reflog(ptr noundef %15, ptr noundef nonnull @show_reflog, ptr noundef null) #13
  br label %17

17:                                               ; preds = %13, %_.exit
  %.0 = phi i32 [ -1, %_.exit ], [ %16, %13 ]
  call void @llvm.lifetime.end.p0(i64 88, ptr nonnull %5) #13
  ret i32 %.0
}